target datalayout = "e-m:e-p270:32:32-p271:32:32-p272:64:64-i64:64-i128:128-f80:128-n8:16:32:64-S128"
target triple = "x86_64-pc-linux-gnu"

%"class.open3d::core::Dtype" = type { i32, i64, [16 x i8] }
%"class.std::vector" = type { %"struct.std::_Vector_base" }
%"struct.std::_Vector_base" = type { %"struct.std::_Vector_base<long, std::allocator<long>>::_Vector_impl" }
%"struct.std::_Vector_base<long, std::allocator<long>>::_Vector_impl" = type { %"struct.std::_Vector_base<long, std::allocator<long>>::_Vector_impl_data" }
%"struct.std::_Vector_base<long, std::allocator<long>>::_Vector_impl_data" = type { ptr, ptr, ptr }
%"class.open3d::core::Tensor" = type { %"class.open3d::core::IsDevice", %"class.open3d::core::SizeVector", %"class.open3d::core::SizeVector", ptr, %"class.open3d::core::Dtype", %"class.std::shared_ptr" }
%"class.open3d::core::IsDevice" = type { ptr }
%"class.open3d::core::SizeVector" = type { %"class.open3d::core::SmallVector" }
%"class.open3d::core::SmallVector" = type { %"class.open3d::core::SmallVectorImpl", %"struct.open3d::core::SmallVectorStorage" }
%"class.open3d::core::SmallVectorImpl" = type { %"class.open3d::core::SmallVectorTemplateBase" }
%"class.open3d::core::SmallVectorTemplateBase" = type { %"class.open3d::core::SmallVectorTemplateCommon" }
%"class.open3d::core::SmallVectorTemplateCommon" = type { %"class.open3d::core::SmallVectorBase" }
%"class.open3d::core::SmallVectorBase" = type { ptr, i32, i32 }
%"struct.open3d::core::SmallVectorStorage" = type { [32 x i8] }
%"class.std::shared_ptr" = type { %"class.std::__shared_ptr" }
%"class.std::__shared_ptr" = type { ptr, %"class.std::__shared_count" }
%"class.std::__shared_count" = type { ptr }
%"class.open3d::core::HashBackendBuffer" = type { %"class.open3d::core::Tensor", %"struct.open3d::core::HashBackendBuffer::HeapTop", %"class.open3d::core::Tensor", %"class.std::vector.0", i64, %"class.std::vector" }
%"struct.open3d::core::HashBackendBuffer::HeapTop" = type <{ %"class.open3d::core::Tensor", %"struct.std::atomic", [4 x i8] }>
%"struct.std::atomic" = type { %"struct.std::__atomic_base" }
%"struct.std::__atomic_base" = type { i32 }
%"class.std::vector.0" = type { %"struct.std::_Vector_base.1" }
%"struct.std::_Vector_base.1" = type { %"struct.std::_Vector_base<open3d::core::Tensor, std::allocator<open3d::core::Tensor>>::_Vector_impl" }
%"struct.std::_Vector_base<open3d::core::Tensor, std::allocator<open3d::core::Tensor>>::_Vector_impl" = type { %"struct.std::_Vector_base<open3d::core::Tensor, std::allocator<open3d::core::Tensor>>::_Vector_impl_data" }
%"struct.std::_Vector_base<open3d::core::Tensor, std::allocator<open3d::core::Tensor>>::_Vector_impl_data" = type { ptr, ptr, ptr }
%"class.open3d::core::Device" = type { i32, i32 }

@.str.9 = private unnamed_addr constant [116 x i8] c"generated/home/dtcxzyw/WorkSpace/Projects/compilers/llvm-opt-benchmark/bench/open3d/Open3D/cpp/open3d/core/Tensor.h\00", align 1
@__PRETTY_FUNCTION__._ZNK6open3d4core6Tensor4ItemIiEET_v = private unnamed_addr constant [47 x i8] c"T open3d::core::Tensor::Item() const [T = int]\00", align 1
@.str.10 = private unnamed_addr constant [63 x i8] c"Tensor::Item() only works for Tensor with exactly one element.\00", align 1

; Function Attrs: mustprogress nounwind ssp uwtable
define linkonce_odr noundef i32 @_ZStanSt12memory_orderSt23__memory_order_modifier(i32 noundef %0, i32 noundef %1) #2 comdat {
  %3 = alloca i32, align 4
  %4 = alloca i32, align 4
  store i32 %0, ptr %3, align 4, !tbaa !230
  store i32 %1, ptr %4, align 4, !tbaa !232
  %5 = load i32, ptr %3, align 4, !tbaa !230
  %6 = load i32, ptr %4, align 4, !tbaa !232
  %7 = and i32 %5, %6
  ret i32 %7
}

; Function Attrs: inlinehint mustprogress nounwind ssp uwtable
define linkonce_odr noundef i32 @_ZNK6open3d4core6Device7GetTypeEv(ptr noundef nonnull align 4 dereferenceable(8) %0) #6 comdat align 2 {
  %2 = alloca ptr, align 8
  store ptr %0, ptr %2, align 8, !tbaa !13
  %3 = load ptr, ptr %2, align 8
  %4 = getelementptr inbounds nuw %"class.open3d::core::Device", ptr %3, i32 0, i32 0
  %5 = load i32, ptr %4, align 4, !tbaa !95
  ret i32 %5
}

; Function Attrs: alwaysinline mustprogress nounwind ssp uwtable
define linkonce_odr noundef i32 @_ZNKSt13__atomic_baseIiE4loadESt12memory_order(ptr noundef nonnull align 4 dereferenceable(4) %0, i32 noundef %1) #5 comdat align 2 {
  %3 = alloca ptr, align 8
  %4 = alloca i32, align 4
  %5 = alloca i32, align 4
  %6 = alloca i32, align 4
  store ptr %0, ptr %3, align 8, !tbaa !113
  store i32 %1, ptr %4, align 4, !tbaa !230
  %7 = load ptr, ptr %3, align 8
  call void @llvm.lifetime.start.p0(i64 4, ptr %5) #27
  %8 = load i32, ptr %4, align 4, !tbaa !230
  %9 = call noundef i32 @_ZStanSt12memory_orderSt23__memory_order_modifier(i32 noundef %8, i32 noundef 65535)
  store i32 %9, ptr %5, align 4, !tbaa !230
  br label %10

10:                                               ; preds = %2
  br label %11

11:                                               ; preds = %10
  br label %12

12:                                               ; preds = %11
  br label %13

13:                                               ; preds = %12
  br label %14

14:                                               ; preds = %13
  br label %15

15:                                               ; preds = %14
  %16 = getelementptr inbounds nuw %"struct.std::__atomic_base", ptr %7, i32 0, i32 0
  %17 = load i32, ptr %4, align 4, !tbaa !230
  switch i32 %17, label %18 [
    i32 1, label %20
    i32 2, label %20
    i32 5, label %22
  ]

18:                                               ; preds = %15
  %19 = load atomic i32, ptr %16 monotonic, align 4
  store i32 %19, ptr %6, align 4
  br label %24

20:                                               ; preds = %15, %15
  %21 = load atomic i32, ptr %16 acquire, align 4
  store i32 %21, ptr %6, align 4
  br label %24

22:                                               ; preds = %15
  %23 = load atomic i32, ptr %16 seq_cst, align 4
  store i32 %23, ptr %6, align 4
  br label %24

24:                                               ; preds = %22, %20, %18
  %25 = load i32, ptr %6, align 4, !tbaa !112
  call void @llvm.lifetime.end.p0(i64 4, ptr %5) #27
  ret i32 %25
}

; Function Attrs: mustprogress ssp uwtable
define linkonce_odr noundef i32 @_ZNK6open3d4core6Tensor4ItemIiEET_v(ptr noundef nonnull align 8 dereferenceable(160) %0) #0 comdat align 2 {
  %2 = alloca ptr, align 8
  %3 = alloca i32, align 4
  %4 = alloca %"class.open3d::core::Device", align 4
  store ptr %0, ptr %2, align 8, !tbaa !62
  %5 = load ptr, ptr %2, align 8
  %6 = getelementptr inbounds nuw %"class.open3d::core::Tensor", ptr %5, i32 0, i32 1
  %7 = call noundef i64 @_ZNK6open3d4core10SizeVector11NumElementsEv(ptr noundef nonnull align 8 dereferenceable(48) %6)
  %8 = icmp ne i64 %7, 1
  br i1 %8, label %9, label %10

9:                                                ; preds = %1
  call void @_ZN6open3d7utility6Logger9LogError_IJEEEvPKciS4_S4_DpOT_(ptr noundef @.str.9, i32 noundef 621, ptr noundef @__PRETTY_FUNCTION__._ZNK6open3d4core6Tensor4ItemIiEET_v, ptr noundef @.str.10) #29
  unreachable

10:                                               ; preds = %1
  call void @_ZNK6open3d4core6Tensor19AssertTemplateDtypeIiEEvv(ptr noundef nonnull align 8 dereferenceable(160) %5)
  call void @llvm.lifetime.start.p0(i64 4, ptr %3) #27
  %11 = getelementptr inbounds nuw %"class.open3d::core::Tensor", ptr %5, i32 0, i32 3
  %12 = load ptr, ptr %11, align 8, !tbaa !65
  call void @llvm.lifetime.start.p0(i64 8, ptr %4) #27
  %13 = load ptr, ptr %5, align 8, !tbaa !63
  %14 = getelementptr inbounds ptr, ptr %13, i64 2
  %15 = load ptr, ptr %14, align 8
  %16 = call i64 %15(ptr noundef nonnull align 8 dereferenceable(160) %5)
  store i64 %16, ptr %4, align 4
  call void @_ZN6open3d4core13MemoryManager12MemcpyToHostEPvPKvRKNS0_6DeviceEm(ptr noundef %3, ptr noundef %12, ptr noundef nonnull align 4 dereferenceable(8) %4, i64 noundef 4)
  call void @llvm.lifetime.end.p0(i64 8, ptr %4) #27
  %17 = load i32, ptr %3, align 4, !tbaa !112
  call void @llvm.lifetime.end.p0(i64 4, ptr %3) #27
  ret i32 %17
}

; Function Attrs: inlinehint mustprogress ssp uwtable
define linkonce_odr noundef zeroext i1 @_ZNK6open3d4core8IsDevice6IsCUDAEv(ptr noundef nonnull align 8 dereferenceable(8) %0) #1 comdat align 2 {
  %2 = alloca ptr, align 8
  %3 = alloca %"class.open3d::core::Device", align 4
  store ptr %0, ptr %2, align 8, !tbaa !98
  %4 = load ptr, ptr %2, align 8
  call void @llvm.lifetime.start.p0(i64 8, ptr %3) #27
  %5 = load ptr, ptr %4, align 8, !tbaa !63
  %6 = getelementptr inbounds ptr, ptr %5, i64 2
  %7 = load ptr, ptr %6, align 8
  %8 = call i64 %7(ptr noundef nonnull align 8 dereferenceable(8) %4)
  store i64 %8, ptr %3, align 4
  %9 = call noundef i32 @_ZNK6open3d4core6Device7GetTypeEv(ptr noundef nonnull align 4 dereferenceable(8) %3)
  %10 = icmp eq i32 %9, 1
  call void @llvm.lifetime.end.p0(i64 8, ptr %3) #27
  ret i1 %10
}

; Function Attrs: mustprogress ssp uwtable
define noundef i32 @_ZNK6open3d4core17HashBackendBuffer15GetHeapTopIndexEv(ptr noundef nonnull align 8 dereferenceable(544) %0) #0 align 2 personality ptr @__gxx_personality_v0 {
  %2 = alloca i32, align 4
  %3 = alloca ptr, align 8
  %4 = alloca %"class.open3d::core::Tensor", align 8
  %5 = alloca ptr, align 8
  %6 = alloca i32, align 4
  store ptr %0, ptr %3, align 8, !tbaa !4
  %7 = load ptr, ptr %3, align 8
  %8 = getelementptr inbounds nuw %"class.open3d::core::HashBackendBuffer", ptr %7, i32 0, i32 0
  %9 = call noundef zeroext i1 @_ZNK6open3d4core8IsDevice6IsCUDAEv(ptr noundef nonnull align 8 dereferenceable(8) %8)
  br i1 %9, label %10, label %19

10:                                               ; preds = %1
  call void @llvm.lifetime.start.p0(i64 160, ptr %4) #27
  %11 = getelementptr inbounds nuw %"class.open3d::core::HashBackendBuffer", ptr %7, i32 0, i32 1
  %12 = getelementptr inbounds nuw %"struct.open3d::core::HashBackendBuffer::HeapTop", ptr %11, i32 0, i32 0
  call void @_ZNK6open3d4core6TensorixEl(ptr dead_on_unwind writable sret(%"class.open3d::core::Tensor") align 8 %4, ptr noundef nonnull align 8 dereferenceable(160) %12, i64 noundef 0)
  %13 = invoke noundef i32 @_ZNK6open3d4core6Tensor4ItemIiEET_v(ptr noundef nonnull align 8 dereferenceable(160) %4)
          to label %14 unwind label %15

14:                                               ; preds = %10
  store i32 %13, ptr %2, align 4
  call void @_ZN6open3d4core6TensorD2Ev(ptr noundef nonnull align 8 dereferenceable(160) %4) #27
  call void @llvm.lifetime.end.p0(i64 160, ptr %4) #27
  br label %23

15:                                               ; preds = %10
  %16 = landingpad { ptr, i32 }
          cleanup
  %17 = extractvalue { ptr, i32 } %16, 0
  store ptr %17, ptr %5, align 8
  %18 = extractvalue { ptr, i32 } %16, 1
  store i32 %18, ptr %6, align 4
  call void @_ZN6open3d4core6TensorD2Ev(ptr noundef nonnull align 8 dereferenceable(160) %4) #27
  call void @llvm.lifetime.end.p0(i64 160, ptr %4) #27
  br label %25

19:                                               ; preds = %1
  %20 = getelementptr inbounds nuw %"class.open3d::core::HashBackendBuffer", ptr %7, i32 0, i32 1
  %21 = getelementptr inbounds nuw %"struct.open3d::core::HashBackendBuffer::HeapTop", ptr %20, i32 0, i32 1
  %22 = call noundef i32 @_ZNKSt13__atomic_baseIiE4loadESt12memory_order(ptr noundef nonnull align 4 dereferenceable(4) %21, i32 noundef 5) #27
  store i32 %22, ptr %2, align 4
  br label %23

23:                                               ; preds = %19, %14
  %24 = load i32, ptr %2, align 4
  ret i32 %24

25:                                               ; preds = %15
  %26 = load ptr, ptr %5, align 8
  %27 = load i32, ptr %6, align 4
  %28 = insertvalue { ptr, i32 } poison, ptr %26, 0
  %29 = insertvalue { ptr, i32 } %28, i32 %27, 1
  resume { ptr, i32 } %29
}