; Function Attrs: mustprogress ssp uwtable
define noundef i32 @_ZNK6open3d4core17HashBackendBuffer15GetHeapTopIndexEv(ptr noundef nonnull align 8 dereferenceable(544) %0) local_unnamed_addr #0 align 2 personality ptr @__gxx_personality_v0 {
  %2 = alloca i32, align 4
  %3 = alloca %"class.open3d::core::Device", align 8
  %4 = alloca %"class.open3d::core::Tensor", align 8
  %5 = load ptr, ptr %0, align 8, !tbaa !4
  %6 = getelementptr inbounds nuw i8, ptr %5, i64 16
  %7 = load ptr, ptr %6, align 8
  %8 = tail call i64 %7(ptr noundef nonnull align 8 dereferenceable(8) %0)
  %9 = and i64 %8, 4294967295
  %10 = icmp eq i64 %9, 1
  br i1 %10, label %11, label %59

11:                                               ; preds = %1
  call void @llvm.lifetime.start.p0(i64 160, ptr nonnull %4) #31
  %12 = getelementptr inbounds nuw i8, ptr %0, i64 160
  call void @_ZNK6open3d4core6TensorixEl(ptr dead_on_unwind nonnull writable sret(%"class.open3d::core::Tensor") align 8 %4, ptr noundef nonnull align 8 dereferenceable(160) %12, i64 noundef 0)
  %13 = getelementptr inbounds nuw i8, ptr %4, i64 8
  %14 = invoke noundef i64 @_ZNK6open3d4core10SizeVector11NumElementsEv(ptr noundef nonnull align 8 dereferenceable(48) %13)
          to label %.noexc unwind label %57

.noexc:                                           ; preds = %11
  %.not.i = icmp eq i64 %14, 1
  br i1 %.not.i, label %16, label %15

15:                                               ; preds = %.noexc
  invoke void @_ZN6open3d7utility6Logger9LogError_IJEEEvPKciS4_S4_DpOT_(ptr noundef nonnull @.str.9, i32 noundef 621, ptr noundef nonnull @__PRETTY_FUNCTION__._ZNK6open3d4core6Tensor4ItemIiEET_v, ptr noundef nonnull @.str.10) #33
          to label %.noexc3 unwind label %57

.noexc3:                                          ; preds = %15
  unreachable

16:                                               ; preds = %.noexc
  invoke void @_ZNK6open3d4core6Tensor19AssertTemplateDtypeIiEEvv(ptr noundef nonnull align 8 dereferenceable(160) %4)
          to label %.noexc4 unwind label %57

.noexc4:                                          ; preds = %16
  call void @llvm.lifetime.start.p0(i64 4, ptr nonnull %2) #31
  %17 = getelementptr inbounds nuw i8, ptr %4, i64 104
  %18 = load ptr, ptr %17, align 8, !tbaa !18
  call void @llvm.lifetime.start.p0(i64 8, ptr nonnull %3) #31
  %19 = load ptr, ptr %4, align 8, !tbaa !4
  %20 = getelementptr inbounds nuw i8, ptr %19, i64 16
  %21 = load ptr, ptr %20, align 8
  %22 = invoke i64 %21(ptr noundef nonnull align 8 dereferenceable(160) %4)
          to label %.noexc5 unwind label %57

.noexc5:                                          ; preds = %.noexc4
  store i64 %22, ptr %3, align 8
  invoke void @_ZN6open3d4core13MemoryManager12MemcpyToHostEPvPKvRKNS0_6DeviceEm(ptr noundef nonnull %2, ptr noundef %18, ptr noundef nonnull align 4 dereferenceable(8) %3, i64 noundef 4)
          to label %23 unwind label %57

23:                                               ; preds = %.noexc5
  call void @llvm.lifetime.end.p0(i64 8, ptr nonnull %3) #31
  %24 = load i32, ptr %2, align 4, !tbaa !60
  call void @llvm.lifetime.end.p0(i64 4, ptr nonnull %2) #31
  store ptr getelementptr inbounds nuw inrange(-16, 24) (i8, ptr @_ZTVN6open3d4core6TensorE, i64 16), ptr %4, align 8, !tbaa !4
  %25 = getelementptr inbounds nuw i8, ptr %4, i64 152
  %26 = load ptr, ptr %25, align 8, !tbaa !56
  %.not.i.i.i = icmp eq ptr %26, null
  br i1 %.not.i.i.i, label %_ZNSt12__shared_ptrIN6open3d4core4BlobELN9__gnu_cxx12_Lock_policyE2EED2Ev.exit.i, label %27

27:                                               ; preds = %23
  %28 = getelementptr inbounds nuw i8, ptr %26, i64 8
  %29 = load atomic i64, ptr %28 acquire, align 8
  %30 = icmp eq i64 %29, 4294967297
  %31 = trunc i64 %29 to i32
  br i1 %30, label %32, label %40

32:                                               ; preds = %27
  store i32 0, ptr %28, align 8, !tbaa !57
  %33 = getelementptr inbounds nuw i8, ptr %26, i64 12
  store i32 0, ptr %33, align 4, !tbaa !59
  %34 = load ptr, ptr %26, align 8, !tbaa !4
  %35 = getelementptr inbounds nuw i8, ptr %34, i64 16
  %36 = load ptr, ptr %35, align 8
  call void %36(ptr noundef nonnull align 8 dereferenceable(16) %26) #31
  %37 = load ptr, ptr %26, align 8, !tbaa !4
  %38 = getelementptr inbounds nuw i8, ptr %37, i64 24
  %39 = load ptr, ptr %38, align 8
  call void %39(ptr noundef nonnull align 8 dereferenceable(16) %26) #31
  br label %_ZNSt12__shared_ptrIN6open3d4core4BlobELN9__gnu_cxx12_Lock_policyE2EED2Ev.exit.i

40:                                               ; preds = %27
  %41 = load i8, ptr @__libc_single_threaded, align 1, !tbaa !36
  %.not.i.i.i.i = icmp eq i8 %41, 0
  br i1 %.not.i.i.i.i, label %44, label %42

42:                                               ; preds = %40
  %43 = add nsw i32 %31, -1
  store i32 %43, ptr %28, align 4, !tbaa !60
  br label %_ZN9__gnu_cxx27__exchange_and_add_dispatchEPii.exit.i.i.i.i

44:                                               ; preds = %40
  %45 = atomicrmw volatile add ptr %28, i32 -1 acq_rel, align 4
  br label %_ZN9__gnu_cxx27__exchange_and_add_dispatchEPii.exit.i.i.i.i

_ZN9__gnu_cxx27__exchange_and_add_dispatchEPii.exit.i.i.i.i: ; preds = %44, %42
  %.0.i.i.i.i.i = phi i32 [ %31, %42 ], [ %45, %44 ]
  %46 = icmp eq i32 %.0.i.i.i.i.i, 1
  br i1 %46, label %47, label %_ZNSt12__shared_ptrIN6open3d4core4BlobELN9__gnu_cxx12_Lock_policyE2EED2Ev.exit.i, !prof !61

47:                                               ; preds = %_ZN9__gnu_cxx27__exchange_and_add_dispatchEPii.exit.i.i.i.i
  call void @_ZNSt16_Sp_counted_baseILN9__gnu_cxx12_Lock_policyE2EE24_M_release_last_use_coldEv(ptr noundef nonnull align 8 dereferenceable(16) %26) #31
  br label %_ZNSt12__shared_ptrIN6open3d4core4BlobELN9__gnu_cxx12_Lock_policyE2EED2Ev.exit.i

_ZNSt12__shared_ptrIN6open3d4core4BlobELN9__gnu_cxx12_Lock_policyE2EED2Ev.exit.i: ; preds = %47, %_ZN9__gnu_cxx27__exchange_and_add_dispatchEPii.exit.i.i.i.i, %32, %23
  %48 = getelementptr inbounds nuw i8, ptr %4, i64 56
  %49 = load ptr, ptr %48, align 8, !tbaa !15
  %50 = getelementptr inbounds nuw i8, ptr %4, i64 72
  %51 = icmp eq ptr %49, %50
  br i1 %51, label %_ZN6open3d4core11SmallVectorIlLj4EED2Ev.exit.i, label %52

52:                                               ; preds = %_ZNSt12__shared_ptrIN6open3d4core4BlobELN9__gnu_cxx12_Lock_policyE2EED2Ev.exit.i
  call void @free(ptr noundef %49) #31
  br label %_ZN6open3d4core11SmallVectorIlLj4EED2Ev.exit.i

_ZN6open3d4core11SmallVectorIlLj4EED2Ev.exit.i:   ; preds = %52, %_ZNSt12__shared_ptrIN6open3d4core4BlobELN9__gnu_cxx12_Lock_policyE2EED2Ev.exit.i
  %53 = load ptr, ptr %13, align 8, !tbaa !15
  %54 = getelementptr inbounds nuw i8, ptr %4, i64 24
  %55 = icmp eq ptr %53, %54
  br i1 %55, label %_ZN6open3d4core6TensorD2Ev.exit, label %56

56:                                               ; preds = %_ZN6open3d4core11SmallVectorIlLj4EED2Ev.exit.i
  call void @free(ptr noundef %53) #31
  br label %_ZN6open3d4core6TensorD2Ev.exit

_ZN6open3d4core6TensorD2Ev.exit:                  ; preds = %_ZN6open3d4core11SmallVectorIlLj4EED2Ev.exit.i, %56
  call void @llvm.lifetime.end.p0(i64 160, ptr nonnull %4) #31
  br label %62

57:                                               ; preds = %.noexc5, %.noexc4, %16, %15, %11
  %58 = landingpad { ptr, i32 }
          cleanup
  call void @_ZN6open3d4core6TensorD2Ev(ptr noundef nonnull align 8 dereferenceable(160) %4) #31
  call void @llvm.lifetime.end.p0(i64 160, ptr nonnull %4) #31
  resume { ptr, i32 } %58

59:                                               ; preds = %1
  %60 = getelementptr inbounds nuw i8, ptr %0, i64 320
  %61 = load atomic i32, ptr %60 seq_cst, align 8
  br label %62

62:                                               ; preds = %59, %_ZN6open3d4core6TensorD2Ev.exit
  %.0 = phi i32 [ %24, %_ZN6open3d4core6TensorD2Ev.exit ], [ %61, %59 ]
  ret i32 %.0
}